target datalayout = "e-m:e-p270:32:32-p271:32:32-p272:64:64-i64:64-i128:128-f80:128-n8:16:32:64-S128"
target triple = "x86_64-pc-linux-gnu"

%class.CompilerDirectives = type { ptr, ptr, i32, ptr, ptr }
%class.BasicMatcher = type { %class.MethodMatcher, ptr }
%class.MethodMatcher = type { ptr, ptr, ptr, i32, i32 }

@.str = private unnamed_addr constant [11 x i8] c"Directive:\00", align 1
@.str.4 = private unnamed_addr constant [11 x i8] c" (default)\00", align 1
@.str.5 = private unnamed_addr constant [12 x i8] c" matching: \00", align 1
@.str.6 = private unnamed_addr constant [3 x i8] c", \00", align 1
@.str.7 = private unnamed_addr constant [16 x i8] c" c1 directives:\00", align 1
@.str.8 = private unnamed_addr constant [16 x i8] c" c2 directives:\00", align 1

; Function Attrs: mustprogress nounwind uwtable
define linkonce_odr hidden noundef ptr @_ZN12BasicMatcher4nextEv(ptr noundef nonnull align 8 dereferenceable(40) %0) #1 comdat align 2 {
  %2 = alloca ptr, align 8
  store ptr %0, ptr %2, align 8
  %3 = load ptr, ptr %2, align 8
  %4 = getelementptr inbounds %class.BasicMatcher, ptr %3, i32 0, i32 1
  %5 = load ptr, ptr %4, align 8
  ret ptr %5
}

; Function Attrs: mustprogress nounwind uwtable
define linkonce_odr hidden void @_ZN12BasicMatcher5printEP12outputStream(ptr noundef nonnull align 8 dereferenceable(40) %0, ptr noundef %1) #1 comdat align 2 {
  %3 = alloca ptr, align 8
  %4 = alloca ptr, align 8
  store ptr %0, ptr %3, align 8
  store ptr %1, ptr %4, align 8
  %5 = load ptr, ptr %3, align 8
  %6 = load ptr, ptr %4, align 8
  call void @_ZN13MethodMatcher10print_baseEP12outputStream(ptr noundef nonnull align 8 dereferenceable(32) %5, ptr noundef %6)
  ret void
}

; Function Attrs: mustprogress nounwind uwtable
define linkonce_odr hidden noundef zeroext i1 @_ZN18CompilerDirectives20is_default_directiveEv(ptr noundef nonnull align 8 dereferenceable(40) %0) #1 comdat align 2 {
  %2 = alloca ptr, align 8
  store ptr %0, ptr %2, align 8
  %3 = load ptr, ptr %2, align 8
  %4 = getelementptr inbounds %class.CompilerDirectives, ptr %3, i32 0, i32 0
  %5 = load ptr, ptr %4, align 8
  %6 = icmp eq ptr %5, null
  ret i1 %6
}

; Function Attrs: mustprogress nounwind uwtable
define hidden void @_ZN18CompilerDirectives5printEP12outputStream(ptr noundef nonnull align 8 dereferenceable(40) %0, ptr noundef %1) #1 align 2 {
  %3 = alloca ptr, align 8
  %4 = alloca ptr, align 8
  %5 = alloca ptr, align 8
  store ptr %0, ptr %3, align 8
  store ptr %1, ptr %4, align 8
  %6 = load ptr, ptr %3, align 8
  %7 = getelementptr inbounds %class.CompilerDirectives, ptr %6, i32 0, i32 1
  %8 = load ptr, ptr %7, align 8
  %9 = icmp ne ptr %8, null
  br i1 %9, label %10, label %37

10:                                               ; preds = %2
  %11 = load ptr, ptr %4, align 8
  call void @_ZN12outputStream2crEv(ptr noundef nonnull align 8 dereferenceable(56) %11)
  %12 = load ptr, ptr %4, align 8
  call void (ptr, ptr, ...) @_ZN12outputStream5printEPKcz(ptr noundef nonnull align 8 dereferenceable(56) %12, ptr noundef @.str)
  %13 = call noundef zeroext i1 @_ZN18CompilerDirectives20is_default_directiveEv(ptr noundef nonnull align 8 dereferenceable(40) %6)
  br i1 %13, label %14, label %16

14:                                               ; preds = %10
  %15 = load ptr, ptr %4, align 8
  call void (ptr, ptr, ...) @_ZN12outputStream8print_crEPKcz(ptr noundef nonnull align 8 dereferenceable(56) %15, ptr noundef @.str.4)
  br label %18

16:                                               ; preds = %10
  %17 = load ptr, ptr %4, align 8
  call void @_ZN12outputStream2crEv(ptr noundef nonnull align 8 dereferenceable(56) %17)
  br label %18

18:                                               ; preds = %16, %14
  %19 = load ptr, ptr %4, align 8
  call void (ptr, ptr, ...) @_ZN12outputStream5printEPKcz(ptr noundef nonnull align 8 dereferenceable(56) %19, ptr noundef @.str.5)
  %20 = getelementptr inbounds %class.CompilerDirectives, ptr %6, i32 0, i32 1
  %21 = load ptr, ptr %20, align 8
  %22 = load ptr, ptr %4, align 8
  call void @_ZN12BasicMatcher5printEP12outputStream(ptr noundef nonnull align 8 dereferenceable(40) %21, ptr noundef %22)
  %23 = getelementptr inbounds %class.CompilerDirectives, ptr %6, i32 0, i32 1
  %24 = load ptr, ptr %23, align 8
  %25 = call noundef ptr @_ZN12BasicMatcher4nextEv(ptr noundef nonnull align 8 dereferenceable(40) %24)
  store ptr %25, ptr %5, align 8
  br label %26

26:                                               ; preds = %29, %18
  %27 = load ptr, ptr %5, align 8
  %28 = icmp ne ptr %27, null
  br i1 %28, label %29, label %35

29:                                               ; preds = %26
  %30 = load ptr, ptr %4, align 8
  call void (ptr, ptr, ...) @_ZN12outputStream5printEPKcz(ptr noundef nonnull align 8 dereferenceable(56) %30, ptr noundef @.str.6)
  %31 = load ptr, ptr %5, align 8
  %32 = load ptr, ptr %4, align 8
  call void @_ZN12BasicMatcher5printEP12outputStream(ptr noundef nonnull align 8 dereferenceable(40) %31, ptr noundef %32)
  %33 = load ptr, ptr %5, align 8
  %34 = call noundef ptr @_ZN12BasicMatcher4nextEv(ptr noundef nonnull align 8 dereferenceable(40) %33)
  store ptr %34, ptr %5, align 8
  br label %26, !llvm.loop !10

35:                                               ; preds = %26
  %36 = load ptr, ptr %4, align 8
  call void @_ZN12outputStream2crEv(ptr noundef nonnull align 8 dereferenceable(56) %36)
  br label %38

37:                                               ; preds = %2
  br label %38

38:                                               ; preds = %37, %35
  %39 = getelementptr inbounds %class.CompilerDirectives, ptr %6, i32 0, i32 3
  %40 = load ptr, ptr %39, align 8
  %41 = icmp ne ptr %40, null
  br i1 %41, label %42, label %47

42:                                               ; preds = %38
  %43 = load ptr, ptr %4, align 8
  call void (ptr, ptr, ...) @_ZN12outputStream8print_crEPKcz(ptr noundef nonnull align 8 dereferenceable(56) %43, ptr noundef @.str.7)
  %44 = getelementptr inbounds %class.CompilerDirectives, ptr %6, i32 0, i32 3
  %45 = load ptr, ptr %44, align 8
  %46 = load ptr, ptr %4, align 8
  call void @_ZN12DirectiveSet5printEP12outputStream(ptr noundef nonnull align 8 dereferenceable(280) %45, ptr noundef %46)
  br label %47

47:                                               ; preds = %42, %38
  %48 = getelementptr inbounds %class.CompilerDirectives, ptr %6, i32 0, i32 4
  %49 = load ptr, ptr %48, align 8
  %50 = icmp ne ptr %49, null
  br i1 %50, label %51, label %57

51:                                               ; preds = %47
  %52 = load ptr, ptr %4, align 8
  call void @_ZN12outputStream2crEv(ptr noundef nonnull align 8 dereferenceable(56) %52)
  %53 = load ptr, ptr %4, align 8
  call void (ptr, ptr, ...) @_ZN12outputStream8print_crEPKcz(ptr noundef nonnull align 8 dereferenceable(56) %53, ptr noundef @.str.8)
  %54 = getelementptr inbounds %class.CompilerDirectives, ptr %6, i32 0, i32 4
  %55 = load ptr, ptr %54, align 8
  %56 = load ptr, ptr %4, align 8
  call void @_ZN12DirectiveSet5printEP12outputStream(ptr noundef nonnull align 8 dereferenceable(280) %55, ptr noundef %56)
  br label %57

57:                                               ; preds = %51, %47
  ret void
}