; Function Attrs: mustprogress nounwind uwtable
define hidden void @_ZN18CompilerDirectives5printEP12outputStream(ptr nocapture noundef nonnull readonly align 8 dereferenceable(40) %0, ptr noundef %1) local_unnamed_addr #0 align 2 {
  %3 = getelementptr inbounds i8, ptr %0, i64 8
  %4 = load ptr, ptr %3, align 8
  %.not = icmp eq ptr %4, null
  br i1 %.not, label %13, label %5

5:                                                ; preds = %2
  tail call void @_ZN12outputStream2crEv(ptr noundef nonnull align 8 dereferenceable(56) %1) #14
  tail call void (ptr, ptr, ...) @_ZN12outputStream5printEPKcz(ptr noundef nonnull align 8 dereferenceable(56) %1, ptr noundef nonnull @.str) #14
  %6 = load ptr, ptr %0, align 8
  %7 = icmp eq ptr %6, null
  br i1 %7, label %8, label %9

8:                                                ; preds = %5
  tail call void (ptr, ptr, ...) @_ZN12outputStream8print_crEPKcz(ptr noundef nonnull align 8 dereferenceable(56) %1, ptr noundef nonnull @.str.4) #14
  br label %10

9:                                                ; preds = %5
  tail call void @_ZN12outputStream2crEv(ptr noundef nonnull align 8 dereferenceable(56) %1) #14
  br label %10

10:                                               ; preds = %9, %8
  tail call void (ptr, ptr, ...) @_ZN12outputStream5printEPKcz(ptr noundef nonnull align 8 dereferenceable(56) %1, ptr noundef nonnull @.str.5) #14
  %11 = load ptr, ptr %3, align 8
  tail call void @_ZN13MethodMatcher10print_baseEP12outputStream(ptr noundef nonnull align 8 dereferenceable(32) %11, ptr noundef nonnull %1) #14
  %12 = load ptr, ptr %3, align 8
  %.0.in21 = getelementptr inbounds i8, ptr %12, i64 32
  %.022 = load ptr, ptr %.0.in21, align 8
  %.not1823 = icmp eq ptr %.022, null
  br i1 %.not1823, label %._crit_edge, label %.lr.ph

.lr.ph:                                           ; preds = %10, %.lr.ph
  %.024 = phi ptr [ %.0, %.lr.ph ], [ %.022, %10 ]
  tail call void (ptr, ptr, ...) @_ZN12outputStream5printEPKcz(ptr noundef nonnull align 8 dereferenceable(56) %1, ptr noundef nonnull @.str.6) #14
  tail call void @_ZN13MethodMatcher10print_baseEP12outputStream(ptr noundef nonnull align 8 dereferenceable(32) %.024, ptr noundef nonnull %1) #14
  %.0.in = getelementptr inbounds i8, ptr %.024, i64 32
  %.0 = load ptr, ptr %.0.in, align 8
  %.not18 = icmp eq ptr %.0, null
  br i1 %.not18, label %._crit_edge, label %.lr.ph, !llvm.loop !11

._crit_edge:                                      ; preds = %.lr.ph, %10
  tail call void @_ZN12outputStream2crEv(ptr noundef nonnull align 8 dereferenceable(56) %1) #14
  br label %13

13:                                               ; preds = %2, %._crit_edge
  %14 = getelementptr inbounds i8, ptr %0, i64 24
  %15 = load ptr, ptr %14, align 8
  %.not19 = icmp eq ptr %15, null
  br i1 %.not19, label %18, label %16

16:                                               ; preds = %13
  tail call void (ptr, ptr, ...) @_ZN12outputStream8print_crEPKcz(ptr noundef nonnull align 8 dereferenceable(56) %1, ptr noundef nonnull @.str.7) #14
  %17 = load ptr, ptr %14, align 8
  tail call void @_ZN12DirectiveSet5printEP12outputStream(ptr noundef nonnull align 8 dereferenceable(280) %17, ptr noundef nonnull %1)
  br label %18

18:                                               ; preds = %16, %13
  %19 = getelementptr inbounds i8, ptr %0, i64 32
  %20 = load ptr, ptr %19, align 8
  %.not20 = icmp eq ptr %20, null
  br i1 %.not20, label %23, label %21

21:                                               ; preds = %18
  tail call void @_ZN12outputStream2crEv(ptr noundef nonnull align 8 dereferenceable(56) %1) #14
  tail call void (ptr, ptr, ...) @_ZN12outputStream8print_crEPKcz(ptr noundef nonnull align 8 dereferenceable(56) %1, ptr noundef nonnull @.str.8) #14
  %22 = load ptr, ptr %19, align 8
  tail call void @_ZN12DirectiveSet5printEP12outputStream(ptr noundef nonnull align 8 dereferenceable(280) %22, ptr noundef nonnull %1)
  br label %23

23:                                               ; preds = %21, %18
  ret void
}